ARM GAS  C:\Users\Kurty\AppData\Local\Temp\ccWQQyLj.s 			page 1


   1              		.syntax unified
   2              		.cpu cortex-m3
   3              		.fpu softvfp
   4              		.eabi_attribute 20, 1
   5              		.eabi_attribute 21, 1
   6              		.eabi_attribute 23, 3
   7              		.eabi_attribute 24, 1
   8              		.eabi_attribute 25, 1
   9              		.eabi_attribute 26, 1
  10              		.eabi_attribute 30, 1
  11              		.eabi_attribute 34, 1
  12              		.eabi_attribute 18, 4
  13              		.thumb
  14              		.syntax unified
  15              		.file	"main.c"
  16              		.text
  17              	.Ltext0:
  18              		.cfi_sections	.debug_frame
  19              		.global	__aeabi_i2d
  20              		.global	__aeabi_dmul
  21              		.global	__aeabi_d2f
  22              		.global	__aeabi_fdiv
  23              		.global	__aeabi_d2iz
  24              		.section	.text.main,"ax",%progbits
  25              		.align	2
  26              		.global	main
  27              		.thumb
  28              		.thumb_func
  29              		.type	main, %function
  30              	main:
  31              	.LFB64:
  32              		.file 1 "main.c"
   1:main.c        **** /* ========================================
   2:main.c        ****  *
   3:main.c        ****  * Copyright YOUR COMPANY, THE YEAR
   4:main.c        ****  * All Rights Reserved
   5:main.c        ****  * UNPUBLISHED, LICENSED SOFTWARE.
   6:main.c        ****  *
   7:main.c        ****  * CONFIDENTIAL AND PROPRIETARY INFORMATION
   8:main.c        ****  * WHICH IS THE PROPERTY OF your company.
   9:main.c        ****  *
  10:main.c        ****  * ========================================
  11:main.c        **** */
  12:main.c        **** #include "project.h"
  13:main.c        **** #include "tgmath.h"
  14:main.c        **** 
  15:main.c        **** // Ultrasonic variables
  16:main.c        **** int FT_Period_Int;
  17:main.c        **** int FT_Period_uS;
  18:main.c        **** int FT_Resolution;
  19:main.c        **** float FT_Time_Per_Tick_uS;
  20:main.c        **** float FT_Time_Per_Tick;
  21:main.c        **** int SoundSpeed;
  22:main.c        **** 
  23:main.c        **** // 7 Segment setups
  24:main.c        **** int Seg1000Count;
  25:main.c        **** int Seg100Count;
ARM GAS  C:\Users\Kurty\AppData\Local\Temp\ccWQQyLj.s 			page 2


  26:main.c        **** int Seg10Count;
  27:main.c        **** int Seg1Count;
  28:main.c        **** int decimalPlaces;
  29:main.c        **** 
  30:main.c        **** // hex values to be sent to 7 seg display for active low
  31:main.c        **** // these could be preprocessor commands instead (#define)
  32:main.c        **** int zero = 0xC0;
  33:main.c        **** int one = 0xF9;
  34:main.c        **** int two = 0xA4;
  35:main.c        **** int three = 0xB0;
  36:main.c        **** int four = 0x99;
  37:main.c        **** int five = 0x92;
  38:main.c        **** int six = 0x82;
  39:main.c        **** int seven = 0xF8;
  40:main.c        **** int eight = 0x80;
  41:main.c        **** int nine = 0x98;
  42:main.c        **** 
  43:main.c        **** int digitThree = 1;
  44:main.c        **** int digitTwo = 2;
  45:main.c        **** int digitOne = 4;
  46:main.c        **** int digitZero = 8;
  47:main.c        **** 
  48:main.c        **** long unsigned int displayData[4]; // 0 = ones digit, MSB = decimal
  49:main.c        **** 
  50:main.c        **** int digit[4]; // should be a local var
  51:main.c        **** 
  52:main.c        **** void getDigits(float FlightTime);
  53:main.c        **** void saveDigitsToRAM();
  54:main.c        **** 
  55:main.c        **** CY_ISR(Flight_Timer_ISR) {
  56:main.c        ****     // Triggers once ultrasonic receives a pulse back
  57:main.c        ****     // Once triggered gets timer value, measures distance
  58:main.c        ****     int FT_Count = Flight_Timer_ReadCapture(); // forces capture, returns capture value
  59:main.c        ****     float FlightTime = FT_Count * FT_Time_Per_Tick;
  60:main.c        ****     getDigits(FlightTime);
  61:main.c        ****     saveDigitsToRAM();
  62:main.c        ****     
  63:main.c        ****     isr_1_ClearPending();
  64:main.c        ****     Flight_Timer_Reset_Reg_Write(1);
  65:main.c        ****     Flight_Timer_Reset_Reg_Write(0);
  66:main.c        ****     
  67:main.c        ****     // Timer_1_ReadStatusRegister()
  68:main.c        **** }
  69:main.c        **** 
  70:main.c        **** //int writeStatus = EEPROM_WriteByte(1,0);
  71:main.c        **** 
  72:main.c        **** 
  73:main.c        **** 
  74:main.c        **** 
  75:main.c        **** int main(void) {
  33              		.loc 1 75 0
  34              		.cfi_startproc
  35              		@ args = 0, pretend = 0, frame = 0
  36              		@ frame_needed = 0, uses_anonymous_args = 0
  37 0000 10B5     		push	{r4, lr}
  38              		.cfi_def_cfa_offset 8
  39              		.cfi_offset 4, -8
ARM GAS  C:\Users\Kurty\AppData\Local\Temp\ccWQQyLj.s 			page 3


  40              		.cfi_offset 14, -4
  76:main.c        ****     CyGlobalIntEnable; /* Enable global interrupts. */
  41              		.loc 1 76 0
  42              		.syntax unified
  43              	@ 76 "main.c" 1
  44 0002 62B6     		CPSIE   i
  45              	@ 0 "" 2
  77:main.c        ****     isr_1_ClearPending();		 // Cancel any pending isr_1 interrupts 
  46              		.loc 1 77 0
  47              		.thumb
  48              		.syntax unified
  49 0004 FFF7FEFF 		bl	isr_1_ClearPending
  50              	.LVL0:
  78:main.c        ****     isr_1_StartEx(Flight_Timer_ISR);     //Enable the interrupt service routine
  51              		.loc 1 78 0
  52 0008 2C48     		ldr	r0, .L6
  53 000a FFF7FEFF 		bl	isr_1_StartEx
  54              	.LVL1:
  79:main.c        **** 
  80:main.c        ****     /* Place your initialization/startup code here (e.g. MyInst_Start()) */
  81:main.c        ****     // Initialising hardware modules
  82:main.c        ****     
  83:main.c        ****     PGA_1_Start();
  55              		.loc 1 83 0
  56 000e FFF7FEFF 		bl	PGA_1_Start
  57              	.LVL2:
  84:main.c        ****     VDAC8_1_Start();
  58              		.loc 1 84 0
  59 0012 FFF7FEFF 		bl	VDAC8_1_Start
  60              	.LVL3:
  85:main.c        ****     Comp_1_Start();
  61              		.loc 1 85 0
  62 0016 FFF7FEFF 		bl	Comp_1_Start
  63              	.LVL4:
  86:main.c        ****     //PGA_1_Start();
  87:main.c        ****     Vssa_Buffer_Start();
  64              		.loc 1 87 0
  65 001a FFF7FEFF 		bl	Vssa_Buffer_Start
  66              	.LVL5:
  88:main.c        ****     Ultrasonic_Drive_Start();
  67              		.loc 1 88 0
  68 001e FFF7FEFF 		bl	Ultrasonic_Drive_Start
  69              	.LVL6:
  89:main.c        ****     Flight_Timer_Enable();
  70              		.loc 1 89 0
  71 0022 FFF7FEFF 		bl	Flight_Timer_Enable
  72              	.LVL7:
  90:main.c        ****     Flight_Timer_Start();
  73              		.loc 1 90 0
  74 0026 FFF7FEFF 		bl	Flight_Timer_Start
  75              	.LVL8:
  91:main.c        ****     Ultrasonic_Drive_Enable();
  76              		.loc 1 91 0
  77 002a FFF7FEFF 		bl	Ultrasonic_Drive_Start
  78              	.LVL9:
  92:main.c        ****     Ultrasonic_Drive_Start();
  79              		.loc 1 92 0
ARM GAS  C:\Users\Kurty\AppData\Local\Temp\ccWQQyLj.s 			page 4


  80 002e FFF7FEFF 		bl	Ultrasonic_Drive_Start
  81              	.LVL10:
  93:main.c        ****     Ultrasonic_Pulse_Counter_Enable();
  82              		.loc 1 93 0
  83 0032 FFF7FEFF 		bl	Ultrasonic_Pulse_Counter_Enable
  84              	.LVL11:
  94:main.c        ****     Ultrasonic_Pulse_Counter_Start();
  85              		.loc 1 94 0
  86 0036 FFF7FEFF 		bl	Ultrasonic_Pulse_Counter_Start
  87              	.LVL12:
  95:main.c        ****     Flight_Timer_Clock_Enable();
  88              		.loc 1 95 0
  89 003a FFF7FEFF 		bl	Flight_Timer_Clock_Start
  90              	.LVL13:
  96:main.c        ****     Flight_Timer_Clock_Start();
  91              		.loc 1 96 0
  92 003e FFF7FEFF 		bl	Flight_Timer_Clock_Start
  93              	.LVL14:
  97:main.c        ****     
  98:main.c        ****     
  99:main.c        **** 
 100:main.c        ****     
 101:main.c        ****     // Timer value setup
 102:main.c        ****     FT_Period_Int = Flight_Timer_ReadPeriod(); // timer period, 1 = 10uS, therefore periodint * 10 
  94              		.loc 1 102 0
  95 0042 FFF7FEFF 		bl	Flight_Timer_ReadPeriod
  96              	.LVL15:
  97 0046 1E4B     		ldr	r3, .L6+4
  98 0048 1860     		str	r0, [r3]
 103:main.c        ****     FT_Period_uS = FT_Period_Int * 10; // period in uS
  99              		.loc 1 103 0
 100 004a 00EB8000 		add	r0, r0, r0, lsl #2
 101 004e 4300     		lsls	r3, r0, #1
 102 0050 1C4A     		ldr	r2, .L6+8
 103 0052 1360     		str	r3, [r2]
 104:main.c        ****     FT_Resolution = 16; // 16-bit timer
 104              		.loc 1 104 0
 105 0054 1021     		movs	r1, #16
 106 0056 1C4A     		ldr	r2, .L6+12
 107 0058 1160     		str	r1, [r2]
 105:main.c        ****     FT_Time_Per_Tick_uS = FT_Period_uS / powl(2,FT_Resolution); // might need to use pow (no L) ins
 108              		.loc 1 105 0
 109 005a 1846     		mov	r0, r3
 110 005c FFF7FEFF 		bl	__aeabi_i2d
 111              	.LVL16:
 112 0060 0022     		movs	r2, #0
 113 0062 1A4B     		ldr	r3, .L6+16
 114 0064 FFF7FEFF 		bl	__aeabi_dmul
 115              	.LVL17:
 116 0068 FFF7FEFF 		bl	__aeabi_d2f
 117              	.LVL18:
 118 006c 184B     		ldr	r3, .L6+20
 119 006e 1860     		str	r0, [r3]	@ float
 106:main.c        ****     FT_Time_Per_Tick = FT_Time_Per_Tick_uS / powl(10,5);
 120              		.loc 1 106 0
 121 0070 1849     		ldr	r1, .L6+24
 122 0072 FFF7FEFF 		bl	__aeabi_fdiv
ARM GAS  C:\Users\Kurty\AppData\Local\Temp\ccWQQyLj.s 			page 5


 123              	.LVL19:
 124 0076 184B     		ldr	r3, .L6+28
 125 0078 1860     		str	r0, [r3]	@ float
 107:main.c        ****     SoundSpeed = 343; // metres per sec
 126              		.loc 1 107 0
 127 007a 40F25712 		movw	r2, #343
 128 007e 174B     		ldr	r3, .L6+32
 129 0080 1A60     		str	r2, [r3]
 130              	.L4:
 131              	.LVL20:
 132              	.LBB2:
 108:main.c        ****     // probably don't need to calculate period each ISR, just once when the program starts
 109:main.c        ****     
 110:main.c        ****     // todo turn on timer interrupt
 111:main.c        ****     // todo reset timer ISR once triggered
 112:main.c        ****     for(;;) {
 113:main.c        ****         /* Place your application code here. */
 114:main.c        ****         // Using Flight_Timer to find distance to the object
 115:main.c        ****             // Pulse goes off
 116:main.c        ****             // Wait until timer hits capture (through ISR)
 117:main.c        ****             // Measure
 118:main.c        ****         // todo loop printing digits to the screen until off
 119:main.c        ****         
 120:main.c        ****         //Digit_Reg_Write(2);
 121:main.c        ****         //Seven_Segment_Reg_Write(0x99);
 122:main.c        ****         //Decimal_Place_Reg_Write(0);
 123:main.c        ****         
 124:main.c        ****         
 125:main.c        ****         //saveDigitsToRAM();
 126:main.c        ****         //Digit_Reg_Write(digitZero);
 127:main.c        ****         //Seven_Segment_Reg_Write(zero);
 128:main.c        ****         // test number write function
 129:main.c        ****         
 130:main.c        ****         for(;;) {
 131:main.c        ****             for(int index = 0; index < 4; index++) { // loop through digits 0 to 3
 133              		.loc 1 131 0
 134 0082 0024     		movs	r4, #0
 135 0084 17E0     		b	.L2
 136              	.LVL21:
 137              	.L3:
 138              	.LBB3:
 132:main.c        ****                 int currentDigit = powl(2,index);
 139              		.loc 1 132 0 discriminator 3
 140 0086 2046     		mov	r0, r4
 141 0088 FFF7FEFF 		bl	__aeabi_i2d
 142              	.LVL22:
 143 008c 0246     		mov	r2, r0
 144 008e 0B46     		mov	r3, r1
 145 0090 0020     		movs	r0, #0
 146 0092 4FF08041 		mov	r1, #1073741824
 147 0096 FFF7FEFF 		bl	powl
 148              	.LVL23:
 149 009a FFF7FEFF 		bl	__aeabi_d2iz
 150              	.LVL24:
 133:main.c        ****                 Digit_Reg_Write(currentDigit);
 151              		.loc 1 133 0 discriminator 3
 152 009e C0B2     		uxtb	r0, r0
ARM GAS  C:\Users\Kurty\AppData\Local\Temp\ccWQQyLj.s 			page 6


 153              	.LVL25:
 154 00a0 FFF7FEFF 		bl	Digit_Reg_Write
 155              	.LVL26:
 134:main.c        ****                 //Digit_Reg_Write(15);
 135:main.c        ****                 Seven_Segment_Reg_Write(displayData[index]);
 156              		.loc 1 135 0 discriminator 3
 157 00a4 0E4B     		ldr	r3, .L6+36
 158 00a6 13F82400 		ldrb	r0, [r3, r4, lsl #2]	@ zero_extendqisi2
 159 00aa FFF7FEFF 		bl	Seven_Segment_Reg_Write
 160              	.LVL27:
 136:main.c        ****                 CyDelay(1);
 161              		.loc 1 136 0 discriminator 3
 162 00ae 0120     		movs	r0, #1
 163 00b0 FFF7FEFF 		bl	CyDelay
 164              	.LVL28:
 165              	.LBE3:
 131:main.c        ****                 int currentDigit = powl(2,index);
 166              		.loc 1 131 0 discriminator 3
 167 00b4 0134     		adds	r4, r4, #1
 168              	.LVL29:
 169              	.L2:
 131:main.c        ****                 int currentDigit = powl(2,index);
 170              		.loc 1 131 0 is_stmt 0 discriminator 1
 171 00b6 032C     		cmp	r4, #3
 172 00b8 E5DD     		ble	.L3
 173 00ba E2E7     		b	.L4
 174              	.L7:
 175              		.align	2
 176              	.L6:
 177 00bc 00000000 		.word	Flight_Timer_ISR
 178 00c0 00000000 		.word	FT_Period_Int
 179 00c4 00000000 		.word	FT_Period_uS
 180 00c8 00000000 		.word	FT_Resolution
 181 00cc 0000F03E 		.word	1055916032
 182 00d0 00000000 		.word	FT_Time_Per_Tick_uS
 183 00d4 0050C347 		.word	1203982336
 184 00d8 00000000 		.word	FT_Time_Per_Tick
 185 00dc 00000000 		.word	SoundSpeed
 186 00e0 00000000 		.word	displayData
 187              	.LBE2:
 188              		.cfi_endproc
 189              	.LFE64:
 190              		.size	main, .-main
 191              		.global	__aeabi_i2f
 192              		.global	__aeabi_fmul
 193              		.global	__aeabi_f2iz
 194              		.section	.text.getDigits,"ax",%progbits
 195              		.align	2
 196              		.global	getDigits
 197              		.thumb
 198              		.thumb_func
 199              		.type	getDigits, %function
 200              	getDigits:
 201              	.LFB65:
 137:main.c        ****             }
 138:main.c        ****         }
 139:main.c        ****     }
ARM GAS  C:\Users\Kurty\AppData\Local\Temp\ccWQQyLj.s 			page 7


 140:main.c        **** }
 141:main.c        **** 
 142:main.c        **** /* [] END OF FILE */
 143:main.c        **** 
 144:main.c        **** 
 145:main.c        **** void getDigits(float FlightTime) {
 202              		.loc 1 145 0 is_stmt 1
 203              		.cfi_startproc
 204              		@ args = 0, pretend = 0, frame = 0
 205              		@ frame_needed = 0, uses_anonymous_args = 0
 206              	.LVL30:
 207 0000 10B5     		push	{r4, lr}
 208              		.cfi_def_cfa_offset 8
 209              		.cfi_offset 4, -8
 210              		.cfi_offset 14, -4
 211 0002 0446     		mov	r4, r0
 146:main.c        ****     // read EEPROM for which kind of distance it is
 147:main.c        ****     // calc distance
 148:main.c        ****     // readEEPROM
 149:main.c        ****     // 1 = mm
 150:main.c        ****     // 2 = cm
 151:main.c        ****     // 3 = inches
 152:main.c        ****     
 153:main.c        ****     // EEPROM GO HERE *********************************************************
 154:main.c        ****     
 155:main.c        ****     //int distanceMode = 1;
 156:main.c        ****     int distanceMM;
 157:main.c        ****     //float distanceCM;
 158:main.c        ****     //float distanceInch;
 159:main.c        ****     
 160:main.c        ****     distanceMM = ((FlightTime * SoundSpeed) / 2) * 1000; // dist in mm, an integer
 212              		.loc 1 160 0
 213 0004 154B     		ldr	r3, .L12
 214 0006 1868     		ldr	r0, [r3]
 215              	.LVL31:
 216 0008 FFF7FEFF 		bl	__aeabi_i2f
 217              	.LVL32:
 218 000c 2146     		mov	r1, r4
 219 000e FFF7FEFF 		bl	__aeabi_fmul
 220              	.LVL33:
 221 0012 4FF07C51 		mov	r1, #1056964608
 222 0016 FFF7FEFF 		bl	__aeabi_fmul
 223              	.LVL34:
 224 001a 1149     		ldr	r1, .L12+4
 225 001c FFF7FEFF 		bl	__aeabi_fmul
 226              	.LVL35:
 227 0020 FFF7FEFF 		bl	__aeabi_f2iz
 228              	.LVL36:
 161:main.c        ****     //distanceCM = ((FlightTime * SoundSpeed) / 2) * 100; // dist in cm
 162:main.c        ****     //distanceInch = ((FlightTime * SoundSpeed) / 2) / 39.3701; // dist in inches
 163:main.c        ****     
 164:main.c        ****     int index = 0;
 229              		.loc 1 164 0
 230 0024 0024     		movs	r4, #0
 231              	.LVL37:
 165:main.c        ****     // 0 = ones
 166:main.c        ****     // 1 = tens
ARM GAS  C:\Users\Kurty\AppData\Local\Temp\ccWQQyLj.s 			page 8


 167:main.c        ****     // 2 = hundreds
 168:main.c        ****     // 3 = thousands
 169:main.c        ****     int currentDigit = distanceMM;
 170:main.c        ****     while(currentDigit >= 10) {
 232              		.loc 1 170 0
 233 0026 15E0     		b	.L9
 234              	.LVL38:
 235              	.L10:
 171:main.c        ****         digit[index] = currentDigit % 10;
 236              		.loc 1 171 0
 237 0028 0E4B     		ldr	r3, .L12+8
 238 002a 83FB0032 		smull	r3, r2, r3, r0
 239 002e C317     		asrs	r3, r0, #31
 240 0030 C3EBA203 		rsb	r3, r3, r2, asr #2
 241 0034 1946     		mov	r1, r3
 242 0036 03EB8303 		add	r3, r3, r3, lsl #2
 243 003a 5A00     		lsls	r2, r3, #1
 244 003c 831A     		subs	r3, r0, r2
 245 003e 0A4A     		ldr	r2, .L12+12
 246 0040 42F82430 		str	r3, [r2, r4, lsl #2]
 172:main.c        ****         
 173:main.c        ****         index += 1; // increment index
 247              		.loc 1 173 0
 248 0044 0134     		adds	r4, r4, #1
 249              	.LVL39:
 174:main.c        ****         currentDigit = floor(currentDigit / 10); // move to next number
 250              		.loc 1 174 0
 251 0046 0846     		mov	r0, r1
 252              	.LVL40:
 253 0048 FFF7FEFF 		bl	__aeabi_i2d
 254              	.LVL41:
 255 004c FFF7FEFF 		bl	floor
 256              	.LVL42:
 257 0050 FFF7FEFF 		bl	__aeabi_d2iz
 258              	.LVL43:
 259              	.L9:
 170:main.c        ****         digit[index] = currentDigit % 10;
 260              		.loc 1 170 0
 261 0054 0928     		cmp	r0, #9
 262 0056 E7DC     		bgt	.L10
 175:main.c        ****     }
 176:main.c        ****     
 177:main.c        ****     /*
 178:main.c        ****     switch(distanceMode) {
 179:main.c        ****         case 1: //mm
 180:main.c        ****             decimalPlaces = 0; // no decimal place
 181:main.c        ****             break;
 182:main.c        ****         case 2: //cm
 183:main.c        ****             decimalPlaces = 1; // 1 decimal place
 184:main.c        ****             break;
 185:main.c        ****         case 3: //inches
 186:main.c        ****             decimalPlaces = 2; // 2 decimal place
 187:main.c        ****             break;
 188:main.c        ****     }
 189:main.c        ****     */
 190:main.c        **** }
 263              		.loc 1 190 0
ARM GAS  C:\Users\Kurty\AppData\Local\Temp\ccWQQyLj.s 			page 9


 264 0058 10BD     		pop	{r4, pc}
 265              	.LVL44:
 266              	.L13:
 267 005a 00BF     		.align	2
 268              	.L12:
 269 005c 00000000 		.word	SoundSpeed
 270 0060 00007A44 		.word	1148846080
 271 0064 67666666 		.word	1717986919
 272 0068 00000000 		.word	digit
 273              		.cfi_endproc
 274              	.LFE65:
 275              		.size	getDigits, .-getDigits
 276              		.global	__aeabi_ui2d
 277              		.global	__aeabi_dadd
 278              		.global	__aeabi_d2uiz
 279              		.section	.text.saveDigitsToRAM,"ax",%progbits
 280              		.align	2
 281              		.global	saveDigitsToRAM
 282              		.thumb
 283              		.thumb_func
 284              		.type	saveDigitsToRAM, %function
 285              	saveDigitsToRAM:
 286              	.LFB66:
 191:main.c        **** 
 192:main.c        **** void saveDigitsToRAM() {
 287              		.loc 1 192 0
 288              		.cfi_startproc
 289              		@ args = 0, pretend = 0, frame = 0
 290              		@ frame_needed = 0, uses_anonymous_args = 0
 291 0000 38B5     		push	{r3, r4, r5, lr}
 292              		.cfi_def_cfa_offset 16
 293              		.cfi_offset 3, -16
 294              		.cfi_offset 4, -12
 295              		.cfi_offset 5, -8
 296              		.cfi_offset 14, -4
 297              	.LVL45:
 298              	.LBB4:
 193:main.c        ****     for(int index = 0; index < 4; index++) { // loop through digits 0 to 3
 299              		.loc 1 193 0
 300 0002 0024     		movs	r4, #0
 301 0004 56E0     		b	.L15
 302              	.LVL46:
 303              	.L29:
 194:main.c        ****         //int currentDigit = powl(2,index);
 195:main.c        ****         //Digit_Reg_Write(currentDigit);
 196:main.c        ****         
 197:main.c        ****         switch(digit[index]) {
 304              		.loc 1 197 0
 305 0006 2D4B     		ldr	r3, .L31
 306 0008 53F82430 		ldr	r3, [r3, r4, lsl #2]
 307 000c 092B     		cmp	r3, #9
 308 000e 41D8     		bhi	.L16
 309 0010 DFE803F0 		tbb	[pc, r3]
 310              	.L18:
 311 0014 05       		.byte	(.L17-.L18)/2
 312 0015 0B       		.byte	(.L19-.L18)/2
 313 0016 11       		.byte	(.L20-.L18)/2
ARM GAS  C:\Users\Kurty\AppData\Local\Temp\ccWQQyLj.s 			page 10


 314 0017 17       		.byte	(.L21-.L18)/2
 315 0018 1D       		.byte	(.L22-.L18)/2
 316 0019 23       		.byte	(.L23-.L18)/2
 317 001a 29       		.byte	(.L24-.L18)/2
 318 001b 2F       		.byte	(.L25-.L18)/2
 319 001c 35       		.byte	(.L26-.L18)/2
 320 001d 3B       		.byte	(.L27-.L18)/2
 321              		.p2align 1
 322              	.L17:
 198:main.c        ****         case 0:
 199:main.c        ****             //Seven_Segment_Reg_Write(zero);
 200:main.c        ****             displayData[index] = zero;
 323              		.loc 1 200 0
 324 001e 284B     		ldr	r3, .L31+4
 325 0020 1A68     		ldr	r2, [r3]
 326 0022 284B     		ldr	r3, .L31+8
 327 0024 43F82420 		str	r2, [r3, r4, lsl #2]
 201:main.c        ****             break;
 328              		.loc 1 201 0
 329 0028 34E0     		b	.L16
 330              	.L19:
 202:main.c        ****         case 1:
 203:main.c        ****             //Seven_Segment_Reg_Write(one);
 204:main.c        ****             displayData[index] = one;
 331              		.loc 1 204 0
 332 002a 254B     		ldr	r3, .L31+4
 333 002c 5A68     		ldr	r2, [r3, #4]
 334 002e 254B     		ldr	r3, .L31+8
 335 0030 43F82420 		str	r2, [r3, r4, lsl #2]
 205:main.c        ****             break;
 336              		.loc 1 205 0
 337 0034 2EE0     		b	.L16
 338              	.L20:
 206:main.c        ****         case 2:
 207:main.c        ****             //Seven_Segment_Reg_Write(two);
 208:main.c        ****             displayData[index] = two;
 339              		.loc 1 208 0
 340 0036 224B     		ldr	r3, .L31+4
 341 0038 9A68     		ldr	r2, [r3, #8]
 342 003a 224B     		ldr	r3, .L31+8
 343 003c 43F82420 		str	r2, [r3, r4, lsl #2]
 209:main.c        ****             break;
 344              		.loc 1 209 0
 345 0040 28E0     		b	.L16
 346              	.L21:
 210:main.c        ****         case 3:
 211:main.c        ****             //Seven_Segment_Reg_Write(three);
 212:main.c        ****             displayData[index] = three;
 347              		.loc 1 212 0
 348 0042 1F4B     		ldr	r3, .L31+4
 349 0044 DA68     		ldr	r2, [r3, #12]
 350 0046 1F4B     		ldr	r3, .L31+8
 351 0048 43F82420 		str	r2, [r3, r4, lsl #2]
 213:main.c        ****             break;
 352              		.loc 1 213 0
 353 004c 22E0     		b	.L16
 354              	.L22:
ARM GAS  C:\Users\Kurty\AppData\Local\Temp\ccWQQyLj.s 			page 11


 214:main.c        ****         case 4:
 215:main.c        ****             //Seven_Segment_Reg_Write(four);
 216:main.c        ****             displayData[index] = four;
 355              		.loc 1 216 0
 356 004e 1C4B     		ldr	r3, .L31+4
 357 0050 1A69     		ldr	r2, [r3, #16]
 358 0052 1C4B     		ldr	r3, .L31+8
 359 0054 43F82420 		str	r2, [r3, r4, lsl #2]
 217:main.c        ****             break;
 360              		.loc 1 217 0
 361 0058 1CE0     		b	.L16
 362              	.L23:
 218:main.c        ****         case 5:
 219:main.c        ****             //Seven_Segment_Reg_Write(five);
 220:main.c        ****             displayData[index] = five;
 363              		.loc 1 220 0
 364 005a 194B     		ldr	r3, .L31+4
 365 005c 5A69     		ldr	r2, [r3, #20]
 366 005e 194B     		ldr	r3, .L31+8
 367 0060 43F82420 		str	r2, [r3, r4, lsl #2]
 221:main.c        ****             break;
 368              		.loc 1 221 0
 369 0064 16E0     		b	.L16
 370              	.L24:
 222:main.c        ****         case 6:
 223:main.c        ****             //Seven_Segment_Reg_Write(six);
 224:main.c        ****             displayData[index] = six;
 371              		.loc 1 224 0
 372 0066 164B     		ldr	r3, .L31+4
 373 0068 9A69     		ldr	r2, [r3, #24]
 374 006a 164B     		ldr	r3, .L31+8
 375 006c 43F82420 		str	r2, [r3, r4, lsl #2]
 225:main.c        ****             break;
 376              		.loc 1 225 0
 377 0070 10E0     		b	.L16
 378              	.L25:
 226:main.c        ****         case 7:
 227:main.c        ****             //Seven_Segment_Reg_Write(seven);
 228:main.c        ****             displayData[index] = seven;
 379              		.loc 1 228 0
 380 0072 134B     		ldr	r3, .L31+4
 381 0074 DA69     		ldr	r2, [r3, #28]
 382 0076 134B     		ldr	r3, .L31+8
 383 0078 43F82420 		str	r2, [r3, r4, lsl #2]
 229:main.c        ****             break;
 384              		.loc 1 229 0
 385 007c 0AE0     		b	.L16
 386              	.L26:
 230:main.c        ****         case 8:
 231:main.c        ****             //Seven_Segment_Reg_Write(eight);
 232:main.c        ****             displayData[index] = eight;
 387              		.loc 1 232 0
 388 007e 104B     		ldr	r3, .L31+4
 389 0080 1A6A     		ldr	r2, [r3, #32]
 390 0082 104B     		ldr	r3, .L31+8
 391 0084 43F82420 		str	r2, [r3, r4, lsl #2]
 233:main.c        ****             break;
ARM GAS  C:\Users\Kurty\AppData\Local\Temp\ccWQQyLj.s 			page 12


 392              		.loc 1 233 0
 393 0088 04E0     		b	.L16
 394              	.L27:
 234:main.c        ****         case 9:
 235:main.c        ****             //Seven_Segment_Reg_Write(nine);
 236:main.c        ****             displayData[index] = nine;
 395              		.loc 1 236 0
 396 008a 0D4B     		ldr	r3, .L31+4
 397 008c 5A6A     		ldr	r2, [r3, #36]
 398 008e 0D4B     		ldr	r3, .L31+8
 399 0090 43F82420 		str	r2, [r3, r4, lsl #2]
 400              	.L16:
 237:main.c        ****             break;
 238:main.c        ****         }
 239:main.c        ****         
 240:main.c        ****         if(index == 1) { // 2nd most significant digit
 401              		.loc 1 240 0
 402 0094 012C     		cmp	r4, #1
 403 0096 0CD1     		bne	.L28
 241:main.c        ****             displayData[index] = displayData[index] + powl(2,7); //unsure if works
 404              		.loc 1 241 0
 405 0098 0A4D     		ldr	r5, .L31+8
 406 009a 55F82400 		ldr	r0, [r5, r4, lsl #2]
 407 009e FFF7FEFF 		bl	__aeabi_ui2d
 408              	.LVL47:
 409 00a2 0022     		movs	r2, #0
 410 00a4 084B     		ldr	r3, .L31+12
 411 00a6 FFF7FEFF 		bl	__aeabi_dadd
 412              	.LVL48:
 413 00aa FFF7FEFF 		bl	__aeabi_d2uiz
 414              	.LVL49:
 415 00ae 45F82400 		str	r0, [r5, r4, lsl #2]
 416              	.L28:
 193:main.c        ****         //int currentDigit = powl(2,index);
 417              		.loc 1 193 0 discriminator 2
 418 00b2 0134     		adds	r4, r4, #1
 419              	.LVL50:
 420              	.L15:
 193:main.c        ****         //int currentDigit = powl(2,index);
 421              		.loc 1 193 0 is_stmt 0 discriminator 1
 422 00b4 032C     		cmp	r4, #3
 423 00b6 A6DD     		ble	.L29
 424              	.LBE4:
 242:main.c        ****         }
 243:main.c        ****     }
 244:main.c        ****     
 245:main.c        ****     // digit pin high = digit SELECTED
 246:main.c        ****     // segment pin low = segment ILLUMINATED
 247:main.c        **** }
 425              		.loc 1 247 0 is_stmt 1
 426 00b8 38BD     		pop	{r3, r4, r5, pc}
 427              	.LVL51:
 428              	.L32:
 429 00ba 00BF     		.align	2
 430              	.L31:
 431 00bc 00000000 		.word	digit
 432 00c0 00000000 		.word	.LANCHOR0
ARM GAS  C:\Users\Kurty\AppData\Local\Temp\ccWQQyLj.s 			page 13


 433 00c4 00000000 		.word	displayData
 434 00c8 00006040 		.word	1080033280
 435              		.cfi_endproc
 436              	.LFE66:
 437              		.size	saveDigitsToRAM, .-saveDigitsToRAM
 438              		.section	.text.Flight_Timer_ISR,"ax",%progbits
 439              		.align	2
 440              		.global	Flight_Timer_ISR
 441              		.thumb
 442              		.thumb_func
 443              		.type	Flight_Timer_ISR, %function
 444              	Flight_Timer_ISR:
 445              	.LFB63:
  55:main.c        ****     // Triggers once ultrasonic receives a pulse back
 446              		.loc 1 55 0
 447              		.cfi_startproc
 448              		@ args = 0, pretend = 0, frame = 0
 449              		@ frame_needed = 0, uses_anonymous_args = 0
 450 0000 08B5     		push	{r3, lr}
 451              		.cfi_def_cfa_offset 8
 452              		.cfi_offset 3, -8
 453              		.cfi_offset 14, -4
  58:main.c        ****     float FlightTime = FT_Count * FT_Time_Per_Tick;
 454              		.loc 1 58 0
 455 0002 FFF7FEFF 		bl	Flight_Timer_ReadCapture
 456              	.LVL52:
  59:main.c        ****     getDigits(FlightTime);
 457              		.loc 1 59 0
 458 0006 FFF7FEFF 		bl	__aeabi_i2f
 459              	.LVL53:
 460 000a 084B     		ldr	r3, .L35
 461 000c 1968     		ldr	r1, [r3]	@ float
 462 000e FFF7FEFF 		bl	__aeabi_fmul
 463              	.LVL54:
  60:main.c        ****     saveDigitsToRAM();
 464              		.loc 1 60 0
 465 0012 FFF7FEFF 		bl	getDigits
 466              	.LVL55:
  61:main.c        ****     
 467              		.loc 1 61 0
 468 0016 FFF7FEFF 		bl	saveDigitsToRAM
 469              	.LVL56:
  63:main.c        ****     Flight_Timer_Reset_Reg_Write(1);
 470              		.loc 1 63 0
 471 001a FFF7FEFF 		bl	isr_1_ClearPending
 472              	.LVL57:
  64:main.c        ****     Flight_Timer_Reset_Reg_Write(0);
 473              		.loc 1 64 0
 474 001e 0120     		movs	r0, #1
 475 0020 FFF7FEFF 		bl	Flight_Timer_Reset_Reg_Write
 476              	.LVL58:
  65:main.c        ****     
 477              		.loc 1 65 0
 478 0024 0020     		movs	r0, #0
 479 0026 FFF7FEFF 		bl	Flight_Timer_Reset_Reg_Write
 480              	.LVL59:
 481 002a 08BD     		pop	{r3, pc}
ARM GAS  C:\Users\Kurty\AppData\Local\Temp\ccWQQyLj.s 			page 14


 482              	.L36:
 483              		.align	2
 484              	.L35:
 485 002c 00000000 		.word	FT_Time_Per_Tick
 486              		.cfi_endproc
 487              	.LFE63:
 488              		.size	Flight_Timer_ISR, .-Flight_Timer_ISR
 489              		.comm	digit,16,4
 490              		.comm	displayData,16,4
 491              		.global	digitZero
 492              		.global	digitOne
 493              		.global	digitTwo
 494              		.global	digitThree
 495              		.global	nine
 496              		.global	eight
 497              		.global	seven
 498              		.global	six
 499              		.global	five
 500              		.global	four
 501              		.global	three
 502              		.global	two
 503              		.global	one
 504              		.global	zero
 505              		.comm	decimalPlaces,4,4
 506              		.comm	Seg1Count,4,4
 507              		.comm	Seg10Count,4,4
 508              		.comm	Seg100Count,4,4
 509              		.comm	Seg1000Count,4,4
 510              		.comm	SoundSpeed,4,4
 511              		.comm	FT_Time_Per_Tick,4,4
 512              		.comm	FT_Time_Per_Tick_uS,4,4
 513              		.comm	FT_Resolution,4,4
 514              		.comm	FT_Period_uS,4,4
 515              		.comm	FT_Period_Int,4,4
 516              		.data
 517              		.align	2
 518              		.set	.LANCHOR0,. + 0
 519              		.type	zero, %object
 520              		.size	zero, 4
 521              	zero:
 522 0000 C0000000 		.word	192
 523              		.type	one, %object
 524              		.size	one, 4
 525              	one:
 526 0004 F9000000 		.word	249
 527              		.type	two, %object
 528              		.size	two, 4
 529              	two:
 530 0008 A4000000 		.word	164
 531              		.type	three, %object
 532              		.size	three, 4
 533              	three:
 534 000c B0000000 		.word	176
 535              		.type	four, %object
 536              		.size	four, 4
 537              	four:
 538 0010 99000000 		.word	153
ARM GAS  C:\Users\Kurty\AppData\Local\Temp\ccWQQyLj.s 			page 15


 539              		.type	five, %object
 540              		.size	five, 4
 541              	five:
 542 0014 92000000 		.word	146
 543              		.type	six, %object
 544              		.size	six, 4
 545              	six:
 546 0018 82000000 		.word	130
 547              		.type	seven, %object
 548              		.size	seven, 4
 549              	seven:
 550 001c F8000000 		.word	248
 551              		.type	eight, %object
 552              		.size	eight, 4
 553              	eight:
 554 0020 80000000 		.word	128
 555              		.type	nine, %object
 556              		.size	nine, 4
 557              	nine:
 558 0024 98000000 		.word	152
 559              		.type	digitZero, %object
 560              		.size	digitZero, 4
 561              	digitZero:
 562 0028 08000000 		.word	8
 563              		.type	digitOne, %object
 564              		.size	digitOne, 4
 565              	digitOne:
 566 002c 04000000 		.word	4
 567              		.type	digitTwo, %object
 568              		.size	digitTwo, 4
 569              	digitTwo:
 570 0030 02000000 		.word	2
 571              		.type	digitThree, %object
 572              		.size	digitThree, 4
 573              	digitThree:
 574 0034 01000000 		.word	1
 575              		.text
 576              	.Letext0:
 577              		.file 2 "c:\\program files (x86)\\cypress\\psoc creator\\4.4\\psoc creator\\import\\gnu\\arm\\5.4.
 578              		.file 3 "c:\\program files (x86)\\cypress\\psoc creator\\4.4\\psoc creator\\import\\gnu\\arm\\5.4.
 579              		.file 4 "Generated_Source\\PSoC5/core_cm3.h"
 580              		.file 5 "c:\\program files (x86)\\cypress\\psoc creator\\4.4\\psoc creator\\import\\gnu\\arm\\5.4.
 581              		.file 6 "Generated_Source\\PSoC5/Digit_Reg.h"
 582              		.file 7 "Generated_Source\\PSoC5/Seven_Segment_Reg.h"
 583              		.file 8 "Generated_Source\\PSoC5/CyLib.h"
 584              		.file 9 "Generated_Source\\PSoC5/isr_1.h"
 585              		.file 10 "Generated_Source\\PSoC5/PGA_1.h"
 586              		.file 11 "Generated_Source\\PSoC5/VDAC8_1.h"
 587              		.file 12 "Generated_Source\\PSoC5/Comp_1.h"
 588              		.file 13 "Generated_Source\\PSoC5/Vssa_Buffer.h"
 589              		.file 14 "Generated_Source\\PSoC5/Ultrasonic_Drive.h"
 590              		.file 15 "Generated_Source\\PSoC5/Flight_Timer.h"
 591              		.file 16 "Generated_Source\\PSoC5/Ultrasonic_Pulse_Counter.h"
 592              		.file 17 "Generated_Source\\PSoC5/Flight_Timer_Clock.h"
 593              		.file 18 "Generated_Source\\PSoC5/Flight_Timer_Reset_Reg.h"